; Function Attrs: mustprogress nounwind uwtable
define dso_local void @_ZN5clang16OMPClausePrinter22VisitOMPAllocateClauseEPNS_17OMPAllocateClauseE(ptr noundef nonnull align 8 dereferenceable(16) %0, ptr noundef %1) local_unnamed_addr #1 align 2 {
  %3 = alloca %"class.llvm::StringRef", align 8
  %4 = getelementptr inbounds nuw i8, ptr %1, i64 16
  %5 = load i32, ptr %4, align 4
  %6 = icmp eq i32 %5, 0
  br i1 %6, label %_ZN4llvm11raw_ostreamlsEPKc.exit15, label %7

7:                                                ; preds = %2
  %8 = load ptr, ptr %0, align 8
  %9 = getelementptr inbounds nuw i8, ptr %8, i64 24
  %10 = load ptr, ptr %9, align 8
  %11 = getelementptr inbounds nuw i8, ptr %8, i64 32
  %12 = load ptr, ptr %11, align 8
  %13 = ptrtoint ptr %10 to i64
  %14 = ptrtoint ptr %12 to i64
  %15 = sub i64 %13, %14
  %16 = icmp ult i64 %15, 8
  br i1 %16, label %17, label %19

17:                                               ; preds = %7
  %18 = tail call noundef nonnull align 8 dereferenceable(48) ptr @_ZN4llvm11raw_ostream5writeEPKcm(ptr noundef nonnull align 8 dereferenceable(48) %8, ptr noundef nonnull @.str.72, i64 noundef 8) #22
  br label %_ZN4llvm11raw_ostreamlsEPKc.exit

19:                                               ; preds = %7
  store i64 7310575174828190817, ptr %12, align 1
  %20 = load ptr, ptr %11, align 8
  %21 = getelementptr inbounds nuw i8, ptr %20, i64 8
  store ptr %21, ptr %11, align 8
  br label %_ZN4llvm11raw_ostreamlsEPKc.exit

_ZN4llvm11raw_ostreamlsEPKc.exit:                 ; preds = %17, %19
  %22 = getelementptr inbounds nuw i8, ptr %1, i64 24
  %23 = load ptr, ptr %22, align 8
  %.not = icmp eq ptr %23, null
  br i1 %.not, label %_ZN4llvm11raw_ostreamlsEPKc.exit12, label %24

24:                                               ; preds = %_ZN4llvm11raw_ostreamlsEPKc.exit
  %25 = load ptr, ptr %0, align 8
  %26 = getelementptr inbounds nuw i8, ptr %25, i64 24
  %27 = load ptr, ptr %26, align 8
  %28 = getelementptr inbounds nuw i8, ptr %25, i64 32
  %29 = load ptr, ptr %28, align 8
  %30 = icmp eq ptr %27, %29
  br i1 %30, label %31, label %33

31:                                               ; preds = %24
  %32 = tail call noundef nonnull align 8 dereferenceable(48) ptr @_ZN4llvm11raw_ostream5writeEPKcm(ptr noundef nonnull align 8 dereferenceable(48) %25, ptr noundef nonnull @.str.29, i64 noundef 1) #22
  br label %_ZN4llvm11raw_ostreamlsEPKc.exit9

33:                                               ; preds = %24
  store i8 40, ptr %29, align 1
  %34 = load ptr, ptr %28, align 8
  %35 = getelementptr inbounds nuw i8, ptr %34, i64 1
  store ptr %35, ptr %28, align 8
  br label %_ZN4llvm11raw_ostreamlsEPKc.exit9

_ZN4llvm11raw_ostreamlsEPKc.exit9:                ; preds = %31, %33
  %36 = load ptr, ptr %0, align 8
  %37 = getelementptr inbounds nuw i8, ptr %0, i64 8
  %38 = load ptr, ptr %37, align 8
  store ptr @.str.2, ptr %3, align 8
  %39 = getelementptr inbounds nuw i8, ptr %3, i64 8
  store i64 1, ptr %39, align 8
  tail call void @_ZNK5clang4Stmt11printPrettyERN4llvm11raw_ostreamEPNS_13PrinterHelperERKNS_14PrintingPolicyEjNS1_9StringRefEPKNS_10ASTContextE(ptr noundef nonnull align 8 dereferenceable(8) %23, ptr noundef nonnull align 8 dereferenceable(48) %36, ptr noundef null, ptr noundef nonnull align 8 dereferenceable(16) %38, i32 noundef 0, ptr noundef nonnull byval(%"class.llvm::StringRef") align 8 %3, ptr noundef null) #22
  %40 = load ptr, ptr %0, align 8
  %41 = getelementptr inbounds nuw i8, ptr %40, i64 24
  %42 = load ptr, ptr %41, align 8
  %43 = getelementptr inbounds nuw i8, ptr %40, i64 32
  %44 = load ptr, ptr %43, align 8
  %45 = icmp eq ptr %42, %44
  br i1 %45, label %46, label %48

46:                                               ; preds = %_ZN4llvm11raw_ostreamlsEPKc.exit9
  %47 = tail call noundef nonnull align 8 dereferenceable(48) ptr @_ZN4llvm11raw_ostream5writeEPKcm(ptr noundef nonnull align 8 dereferenceable(48) %40, ptr noundef nonnull @.str.73, i64 noundef 1) #22
  br label %_ZN4llvm11raw_ostreamlsEPKc.exit12

48:                                               ; preds = %_ZN4llvm11raw_ostreamlsEPKc.exit9
  store i8 58, ptr %44, align 1
  %49 = load ptr, ptr %43, align 8
  %50 = getelementptr inbounds nuw i8, ptr %49, i64 1
  store ptr %50, ptr %43, align 8
  br label %_ZN4llvm11raw_ostreamlsEPKc.exit12

_ZN4llvm11raw_ostreamlsEPKc.exit12:               ; preds = %_ZN4llvm11raw_ostreamlsEPKc.exit, %48, %46
  %.sink = phi i8 [ 32, %46 ], [ 32, %48 ], [ 40, %_ZN4llvm11raw_ostreamlsEPKc.exit ]
  tail call void @_ZN5clang16OMPClausePrinter18VisitOMPClauseListINS_17OMPAllocateClauseEEEvPT_c(ptr noundef nonnull align 8 dereferenceable(16) %0, ptr noundef nonnull %1, i8 noundef signext %.sink)
  %51 = load ptr, ptr %0, align 8
  %52 = getelementptr inbounds nuw i8, ptr %51, i64 24
  %53 = load ptr, ptr %52, align 8
  %54 = getelementptr inbounds nuw i8, ptr %51, i64 32
  %55 = load ptr, ptr %54, align 8
  %56 = icmp eq ptr %53, %55
  br i1 %56, label %57, label %59

57:                                               ; preds = %_ZN4llvm11raw_ostreamlsEPKc.exit12
  %58 = tail call noundef nonnull align 8 dereferenceable(48) ptr @_ZN4llvm11raw_ostream5writeEPKcm(ptr noundef nonnull align 8 dereferenceable(48) %51, ptr noundef nonnull @.str.3, i64 noundef 1) #22
  br label %_ZN4llvm11raw_ostreamlsEPKc.exit15

59:                                               ; preds = %_ZN4llvm11raw_ostreamlsEPKc.exit12
  store i8 41, ptr %55, align 1
  %60 = load ptr, ptr %54, align 8
  %61 = getelementptr inbounds nuw i8, ptr %60, i64 1
  store ptr %61, ptr %54, align 8
  br label %_ZN4llvm11raw_ostreamlsEPKc.exit15

_ZN4llvm11raw_ostreamlsEPKc.exit15:               ; preds = %59, %57, %2
  ret void
}